target datalayout = "e-m:e-p270:32:32-p271:32:32-p272:64:64-i64:64-i128:128-f80:128-n8:16:32:64-S128"
target triple = "x86_64-unknown-linux-gnu"

%"class.google::protobuf::io::ZeroCopyInputStream" = type { ptr }
%"class.google::protobuf::io::ConcatenatingInputStream" = type { %"class.google::protobuf::io::ZeroCopyInputStream", ptr, i32, i64 }

; Function Attrs: mustprogress uwtable
define void @_ZN6google8protobuf2io24ConcatenatingInputStream6BackUpEi(ptr noundef nonnull align 8 dereferenceable(32) %this, i32 noundef %count) unnamed_addr #4 align 2 {
entry:
  %this.addr = alloca ptr, align 8
  %count.addr = alloca i32, align 4
  store ptr %this, ptr %this.addr, align 8
  store i32 %count, ptr %count.addr, align 4
  %this1 = load ptr, ptr %this.addr, align 8
  %stream_count_ = getelementptr inbounds %"class.google::protobuf::io::ConcatenatingInputStream", ptr %this1, i32 0, i32 2
  %0 = load i32, ptr %stream_count_, align 8
  %cmp = icmp sgt i32 %0, 0
  br i1 %cmp, label %if.then, label %if.else

if.then:                                          ; preds = %entry
  %streams_ = getelementptr inbounds %"class.google::protobuf::io::ConcatenatingInputStream", ptr %this1, i32 0, i32 1
  %1 = load ptr, ptr %streams_, align 8
  %arrayidx = getelementptr inbounds ptr, ptr %1, i64 0
  %2 = load ptr, ptr %arrayidx, align 8
  %3 = load i32, ptr %count.addr, align 4
  %vtable = load ptr, ptr %2, align 8
  %vfn = getelementptr inbounds ptr, ptr %vtable, i64 3
  %4 = load ptr, ptr %vfn, align 8
  call void %4(ptr noundef nonnull align 8 dereferenceable(8) %2, i32 noundef %3)
  br label %if.end

if.else:                                          ; preds = %entry
  br label %if.end

if.end:                                           ; preds = %if.else, %if.then
  ret void
}