; Function Attrs: mustprogress uwtable
define void @_ZN6google8protobuf2io24ConcatenatingInputStream6BackUpEi(ptr nocapture noundef nonnull readonly align 8 dereferenceable(32) %this, i32 noundef %count) unnamed_addr #3 align 2 {
entry:
  %stream_count_ = getelementptr inbounds i8, ptr %this, i64 16
  %0 = load i32, ptr %stream_count_, align 8
  %cmp = icmp sgt i32 %0, 0
  br i1 %cmp, label %if.then, label %if.end

if.then:                                          ; preds = %entry
  %streams_ = getelementptr inbounds i8, ptr %this, i64 8
  %1 = load ptr, ptr %streams_, align 8
  %2 = load ptr, ptr %1, align 8
  %vtable = load ptr, ptr %2, align 8
  %vfn = getelementptr inbounds i8, ptr %vtable, i64 24
  %3 = load ptr, ptr %vfn, align 8
  tail call void %3(ptr noundef nonnull align 8 dereferenceable(8) %2, i32 noundef %count)
  br label %if.end

if.end:                                           ; preds = %entry, %if.then
  ret void
}